(dp0
S'CC'
p1
L24L
sS'XSS'
p2
L0L
sS'ALL'
p3
L427L
sS'ACCESSCTRL'
p4
L0L
sS'PROTOCOL'
p5
L0L
sS'SENDOR'
p6
S'test1@cloudfence.cn'
p7
sS'GENERIC'
p8
L0L
sS'INTERVAL'
p9
S'1'
p10
sS'MONTH'
p11
S'201410'
p12
sS'SQLI'
p13
L67L
sS'OTHER'
p14
L2L
sS'TROJANS'
p15
L0L
sS'OVERFLOW'
p16
L0L
sS'LEAKAGE'
p17
L0L
s.