(i__main__
WfLib
p1
(dp2
S'postData'
p3
(dp4
S'username'
p5
Vadmin
p6
sS'password'
p7
Vadmin
p8
ssS'timestamp'
p9
I1474438309
sS'sessionId'
p10
S'brt8eindlljk7rrhue76f85fb1'
p11
sS'hosturl'
p12
S'https://172.16.2.233:8080/index.php'
p13
sS'host'
p14
Vhttps://172.16.2.233:8080/
p15
sS'opener'
p16
NsS'posturl'
p17
g13
sb.